(lp1
(S'java'
p2
I360
tp3
a(S'html'
p4
I320
tp5
a(S'css'
p6
I241
tp7
a(S'c++'
p8
I225
tp9
a(S'c'
I209
tp10
a(S'python'
p11
I202
tp12
a(S''
I187
tp13
a(S'marketing'
p14
I172
tp15
a(S'javascript'
p16
I169
tp17
a(S'php'
p18
I153
tp19
a(S'excel'
p20
I132
tp21
a(S'research'
p22
I122
tp23
a(S'sql'
p24
I122
tp25
a(S'leadership'
p26
I118
tp27
a(S'matlab'
p28
I115
tp29
a(S'microsoft office'
p30
I115
tp31
a(S'social media'
p32
I112
tp33
a(S'customer service'
p34
I107
tp35
a(S'mysql'
p36
I87
tp37
a(S'photoshop'
p38
I86
tp39
a(S'jquery'
p40
I83
tp41
a(S'communication'
p42
I82
tp43
a(S'js'
p44
I81
tp45
a(S'sales'
p46
I78
tp47
a(S'html5'
p48
I72
tp49
a(S'management'
p50
I69
tp51
a(S'powerpoint'
p52
I68
tp53
a(S'c#'
p54
I64
tp55
a(S'project management'
p56
I61
tp57
a(S'event planning'
p58
I55
tp59
a(S'writing'
p60
I53
tp61
a(S'organization'
p62
I52
tp63
a(S'data analysis'
p64
I48
tp65
a(S'roid'
p66
I46
tp67
a(S'finance'
p68
I42
tp69
a(S'word'
p70
I41
tp71
a(S'wordpress'
p72
I41
tp73
a(S'teamwork'
p74
I41
tp75
a(S'microsoft word'
p76
I38
tp77
a(S'public speaking'
p78
I38
tp79
a(S'business development'
p80
I36
tp81
a(S'advertising'
p82
I34
tp83
a(S'public relations'
p84
I34
tp85
a(S'teaching'
p86
I33
tp87
a(S'css3'
p88
I33
tp89
a(S'c/c++'
p90
I33
tp91
a(S'solidworks'
p92
I32
tp93
a(S'higher education'
p94
I32
tp95
a(S'ruby on rails'
p96
I31
tp97
a(S'design'
p98
I31
tp99
a(S'time management'
p100
I31
tp101
a(S'r'
I31
tp102
a(S'autocad'
p103
I31
tp104
a(S'microsoft excel'
p105
I31
tp106
a(S'entrepreneurship'
p107
I30
tp108
a(S'ruby'
p109
I30
tp110
a(S'linux'
p111
I30
tp112
a(S'strategy'
p113
I29
tp114
a(S'perl'
p115
I29
tp116
a(S'editing'
p117
I28
tp118
a(S'illustrator'
p119
I28
tp120
a(S'blogging'
p121
I27
tp122
a(S'verilog'
p123
I27
tp124
a(S'product management'
p125
I27
tp126
a(S'br'
p127
I27
tp128
a(S'consulting'
p129
I26
tp130
a(S'git'
p131
I25
tp132
a(S'xml'
p133
I24
tp134
a(S'photography'
p135
I23
tp136
a(S'indesign'
p137
I23
tp138
a(S'accounting'
p139
I23
tp140
a(S'machine learning'
p141
I22
tp142
a(S'web development'
p143
I22
tp144
a(S'market research'
p145
I21
tp146
a(S'networking'
p147
I21
tp148
a(S'ms office'
p149
I21
tp150
a(S'retail'
p151
I20
tp152
a(S'analysis'
p153
I20
tp154
a(S'social media marketing'
p155
I20
tp156
a(S'salesforce'
p157
I19
tp158
a(S'analytics'
p159
I19
tp160
a(S'seo'
p161
I19
tp162
a(S'ios'
p163
I19
tp164
a(S'asp.net'
p165
I19
tp166
a(S'education'
p167
I19
tp168
a(S'access'
p169
I18
tp170
a(S'information technology'
p171
I18
tp172
a(S'communications'
p173
I18
tp174
a(S'computer software'
p175
I18
tp176
a(S'jsp'
p177
I18
tp178
a(S'django'
p179
I17
tp180
a(S'spanish'
p181
I17
tp182
a(S'data mining'
p183
I17
tp184
a(S'unix'
p185
I17
tp186
a(S'spss'
p187
I17
tp188
a(S'fundraising'
p189
I17
tp190
a(S'objective-c'
p191
I17
tp192
a(S'data entry'
p193
I16
tp194
a(S'graphic design'
p195
I16
tp196
a(S'services'
p197
I16
tp198
a(S'stata'
p199
I16
tp200
a(S'technology'
p201
I16
tp202
a(S'microsoft powerpoint'
p203
I16
tp204
a(S'journalism'
p205
I16
tp206
a(S'product development'
p207
I16
tp208
a(S'web design'
p209
I15
tp210
a(S'operations'
p211
I15
tp212
a(S'adobe illustrator'
p213
I15
tp214
a(S'security'
p215
I15
tp216
a(S'latex'
p217
I15
tp218
a(S'training'
p219
I14
tp220
a(S'recruiting'
p221
I14
tp222
a(S'pcr'
p223
I14
tp224
a(S'vba'
p225
I14
tp226
a(S'microsoft office suite'
p227
I14
tp228
a(S'ling'
p229
I14
tp230
a(S'adobe photoshop'
p231
I14
tp232
a(S'troubleshooting'
p233
I14
tp234
a(S'problem solving'
p235
I14
tp236
a(S'objective c'
p237
I14
tp238
a(S'facebook'
p239
I13
tp240
a(S'ing'
p241
I13
tp242
a(S'ansys'
p243
I13
tp244
a(S'sas'
p245
I13
tp246
a(S'windows'
p247
I13
tp248
a(S'm'
I13
tp249
a(S'creativity'
p250
I13
tp251
a(S'hadoop'
p252
I13
tp253
a(S'hospitality'
p254
I13
tp255
a(S'agile'
p256
I13
tp257
a(S'non-profit'
p258
I13
tp259
a(S'logistics'
p260
I12
tp261
a(S'adobe creative suite'
p262
I12
tp263
a(S'visual basic'
p264
I12
tp265
a(S'video editing'
p266
I12
tp267
a(S'media'
p268
I12
tp269
a(S'database'
p270
I12
tp271
a(S'business'
p272
I12
tp273
a(S'oracle'
p274
I12
tp275
a(S'financial modeling'
p276
I11
tp277
a(S'financial services'
p278
I11
tp279
a(S'french'
p280
I11
tp281
a(S'j2ee'
p282
I11
tp283
a(S'sports'
p284
I11
tp285
a(S'algorithms'
p286
I11
tp287
a(S'tutoring'
p288
I11
tp289
a(S'development'
p290
I11
tp291
a(S'hci'
p292
I11
tp293
a(S'ajax'
p294
I11
tp295
a(S'collaboration'
p296
I11
tp297
a(S'business analysis'
p298
I11
tp299
a(S'technical support'
p300
I11
tp301
a(S'crm'
p302
I11
tp303
a(S'bloomberg'
p304
I11
tp305
a(S'product design'
p306
I11
tp307
a(S'planning'
p308
I10
tp309
a(S'fashion'
p310
I10
tp311
a(S'outlook'
p312
I10
tp313
a(S'coaching'
p314
I10
tp315
a(S'rails'
p316
I10
tp317
a(S'management consulting'
p318
I10
tp319
a(S'financial analysis'
p320
I10
tp321
a(S'event management'
p322
I10
tp323
a(S'.net'
p324
I10
tp325
a(S'team management'
p326
I10
tp327
a(S'twitter'
p328
I10
tp329
a(S'creative'
p330
I10
tp331
a(S'assembly'
p332
I10
tp333
a(S'gis'
p334
I10
tp335
a(S'mongodb'
p336
I10
tp337
a(S'health'
p338
I9
tp339
a(S'economics'
p340
I9
tp341
a(S'quickbooks'
p342
I9
tp343
a(S'private equity'
p344
I9
tp345
a(S'imovie'
p346
I9
tp347
a(S'mobile'
p348
I9
tp349
a(S'customer relations'
p350
I9
tp351
a(S'sap'
p352
I9
tp353
a(S'software engineering'
p354
I9
tp355
a(S'testing'
p356
I9
tp357
a(S'quality assurance'
p358
I9
tp359
a(S'minitab'
p360
I9
tp361
a(S'math'
p362
I9
tp363
a(S'optimization'
p364
I9
tp365
a(S'it'
p366
I9
tp367
a(S'reporting'
p368
I9
tp369
a(S'team work'
p370
I9
tp371
a(S'scrum'
p372
I9
tp373
a(S'outreach'
p374
I9
tp375
a(S'business strategy'
p376
I9
tp377
a(S'internet'
p378
I8
tp379
a(S'database management'
p380
I8
tp381
a(S'eclipse'
p382
I8
tp383
a(S'clerical'
p384
I8
tp385
a(S'due diligence'
p386
I8
tp387
a(S'hibernate'
p388
I8
tp389
a(S'startup'
p390
I8
tp391
a(S'google analytics'
p392
I8
tp393
a(S'construction'
p394
I8
tp395
a(S'strategic planning'
p396
I8
tp397
a(S'big data'
p398
I8
tp399
a(S'nonprofit organization management'
p400
I8
tp401
a(S'labview'
p402
I8
tp403
a(S'engineering'
p404
I8
tp405
a(S'administration'
p406
I8
tp407
a(S'innovation'
p408
I8
tp409
a(S'manufacturing'
p410
I8
tp411
a(S'postgresql'
p412
I8
tp413
a(S'health care'
p414
I8
tp415
a(S'venture capital'
p416
I8
tp417
a(S'html/css'
p418
I8
tp419
a(S'ux'
p420
I8
tp421
a(S'mathematics'
p422
I8
tp423
a(S'flash'
p424
I7
tp425
a(S'software development'
p426
I7
tp427
a(S'visio'
p428
I7
tp429
a(S'data management'
p430
I7
tp431
a(S'cad'
p432
I7
tp433
a(S'travel'
p434
I7
tp435
a(S'final cut pro'
p436
I7
tp437
a(S'nonprofit'
p438
I7
tp439
a(S'github'
p440
I7
tp441
a(S'food'
p442
I7
tp443
a(S'first aid'
p444
I7
tp445
a(S'product marketing'
p446
I7
tp447
a(S'adobe indesign'
p448
I7
tp449
a(S'prospecting'
p450
I7
tp451
a(S'fitness'
p452
I7
tp453
a(S'adobe'
p454
I7
tp455
a(S'trading'
p456
I7
tp457
a(S'investment banking'
p458
I7
tp459
a(S'statistics'
p460
I7
tp461
a(S'node.js'
p462
I7
tp463
a(S'copywriting'
p464
I7
tp465
a(S'ui design'
p466
I7
tp467
a(S'arduino'
p468
I7
tp469
a(S'budgeting'
p470
I7
tp471
a(S'selenium'
p472
I7
tp473
a(S'json'
p474
I7
tp475
a(S'dreamweaver'
p476
I7
tp477
a(S'volunteer'
p478
I7
tp479
a(S'medical devices'
p480
I7
tp481
a(S'pro-e'
p482
I7
tp483
a(S'product strategy'
p484
I7
tp485
a(S'community service'
p486
I7
tp487
a(S'scheme'
p488
I7
tp489
a(S'spring'
p490
I7
tp491
a(S'organizing'
p492
I7
tp493
a(S'mac os x'
p494
I7
tp495
a(S'software'
p496
I7
tp497
a(S'ms excel'
p498
I7
tp499
a(S'valuation'
p500
I7
tp501
a(S'analyst'
p502
I7
tp503
a(S'cpr'
p504
I7
tp505
a(S'cold calling'
p506
I6
tp507
a(S'vb.net'
p508
I6
tp509
a(S'semiconductors'
p510
I6
tp511
a(S'hospital'
p512
I6
tp513
a(S'risk management'
p514
I6
tp515
a(S'music'
p516
I6
tp517
a(S'scheduling'
p518
I6
tp519
a(S'actionscript'
p520
I6
tp521
a(S'power point'
p522
I6
tp523
a(S'mac'
p524
I6
tp525
a(S'a'
I6
tp526
a(S'pl/sql'
p527
I6
tp528
a(S'ms word'
p529
I6
tp530
a(S'communication skills'
p531
I6
tp532
a(S'data analytics'
p533
I6
tp534
a(S'directing'
p535
I6
tp536
a(S'electronics'
p537
I6
tp538
a(S'jira'
p539
I6
tp540
a(S'cell culture'
p541
I6
tp542
a(S'online media'
p543
I6
tp544
a(S'java/j2ee'
p545
I6
tp546
a(S'pspice'
p547
I6
tp548
a(S'mentorship'
p549
I6
tp550
a(S'sql server'
p551
I6
tp552
a(S'team player'
p553
I6
tp554
a(S'lightroom'
p555
I6
tp556
a(S'biotechnology'
p557
I6
tp558
a(S'wellness'
p559
I6
tp560
a(S'interviewing'
p561
I6
tp562
a(S'presentations'
p563
I6
tp564
a(S'customer support'
p565
I6
tp566
a(S'telecommunications'
p567
I6
tp568
a(S'3d printing'
p569
I6
tp570
a(S'people skills'
p571
I6
tp572
a(S'digital marketing'
p573
I6
tp574
a(S'subversion'
p575
I6
tp576
a(S'public policy'
p577
I6
tp578
a(S'team building'
p579
I6
tp580
a(S'redis'
p581
I6
tp582
a(S'heroku'
p583
I6
tp584
a(S'pivot tables'
p585
I6
tp586
a(S'sketchup'
p587
I6
tp588
a(S'human resources'
p589
I6
tp590
a(S'computer science'
p591
I6
tp592
a(S'ising'
p593
I6
tp594
a(S'scala'
p595
I6
tp596
a(S'saas'
p597
I5
tp598
a(S'acting'
p599
I5
tp600
a(S'environment'
p601
I5
tp602
a(S'presentation'
p603
I5
tp604
a(S'vhdl'
p605
I5
tp606
a(S'recruitment'
p607
I5
tp608
a(S'tdm'
p609
I5
tp610
a(S'outgoing'
p611
I5
tp612
a(S'octave'
p613
I5
tp614
a(S'microsoft access'
p615
I5
tp616
a(S'google adwords'
p617
I5
tp618
a(S'computer architecture'
p619
I5
tp620
a(S'game development'
p621
I5
tp622
a(S'modelling'
p623
I5
tp624
a(S'cas'
p625
I5
tp626
a(S'organized'
p627
I5
tp628
a(S'social media manager'
p629
I5
tp630
a(S'education management'
p631
I5
tp632
a(S'sharepoint'
p633
I5
tp634
a(S'data'
p635
I5
tp636
a(S'bootstrap'
p637
I5
tp638
a(S'apparel'
p639
I5
tp640
a(S'partnerships'
p641
I5
tp642
a(S'twitter bootstrap'
p643
I5
tp644
a(S'office'
p645
I5
tp646
a(S'lamp'
p647
I5
tp648
a(S'supply chain management'
p649
I5
tp650
a(S'advanced excel'
p651
I5
tp652
a(S'mapreduce'
p653
I5
tp654
a(S'catia'
p655
I5
tp656
a(S'hootsuite'
p657
I5
tp658
a(S'computer hardware'
p659
I5
tp660
a(S'creative writing'
p661
I5
tp662
a(S'payroll'
p663
I5
tp664
a(S'programming'
p665
I5
tp666
a(S'administrative'
p667
I5
tp668
a(S'marketing strategy'
p669
I5
tp670
a(S'junit'
p671
I5
tp672
a(S'cisionpoint'
p673
I5
tp674
a(S'competitive analysis'
p675
I5
tp676
a(S'prototyping'
p677
I5
tp678
a(S'user experience'
p679
I5
tp680
a(S'elisa'
p681
I5
tp682
a(S'calculus'
p683
I5
tp684
a(S'healthcare'
p685
I5
tp686
a(S'databases'
p687
I5
tp688
a(S'german'
p689
I5
tp690
a(S'performing arts'
p691
I5
tp692
a(S'email marketing'
p693
I5
tp694
a(S'translation'
p695
I5
tp696
a(S'mouse h'
p697
I5
tp698
a(S'mac os'
p699
I5
tp700
a(S'isdn'
p701
I5
tp702
a(S'sem'
p703
I5
tp704
a(S'merch'
p705
I5
tp706
a(S'data structures'
p707
I5
tp708
a(S'mentoring'
p709
I5
tp710
a(S'attention to detail'
p711
I5
tp712
a(S'film'
p713
I5
tp714
a(S'press releases'
p715
I5
tp716
a(S'negotiation'
p717
I5
tp718
a(S'robotics'
p719
I5
tp720
a(S'codeigniter'
p721
I5
tp722
a(S'customer satisfaction'
p723
I5
tp724
a(S'consultant'
p725
I5
tp726
a(S'nodejs'
p727
I5
tp728
a(S'servlets'
p729
I5
tp730
a(S'microsoft'
p731
I5
tp732
a(S'oil'
p733
I5
tp734
a(S'audit'
p735
I5
tp736
a(S'roid development'
p737
I5
tp738
a(S'investments'
p739
I5
tp740
a(S'tcl'
p741
I5
tp742
a(S'web'
p743
I5
tp744
a(S'grading'
p745
I5
tp746
a(S'mobile development'
p747
I5
tp748
a(S'e1r2'
p749
I5
tp750
a(S'hr'
p751
I5
tp752
a(S'digital photography'
p753
I5
tp754
a(S'community outreach'
p755
I5
tp756
a(S'mathematica'
p757
I5
tp758
a(S'psychology'
p759
I5
tp760
a(S'chinese'
p761
I4
tp762
a(S'mathcad'
p763
I4
tp764
a(S'information services'
p765
I4
tp766
a(S'catia v5'
p767
I4
tp768
a(S'social network'
p769
I4
tp770
a(S'screenwriting'
p771
I4
tp772
a(S'erp'
p773
I4
tp774
a(S'proe'
p775
I4
tp776
a(S'media production'
p777
I4
tp778
a(S'apache'
p779
I4
tp780
a(S'publisher'
p781
I4
tp782
a(S'electrochemical testing'
p783
I4
tp784
a(S'cloud'
p785
I4
tp786
a(S'dna'
p787
I4
tp788
a(S'final cut'
p789
I4
tp790
a(S'interaction design'
p791
I4
tp792
a(S'jmp'
p793
I4
tp794
a(S'cashier'
p795
I4
tp796
a(S'sqlite'
p797
I4
tp798
a(S'computer vision'
p799
I4
tp800
a(S'cash h'
p801
I4
tp802
a(S'sustainability'
p803
I4
tp804
a(S'law'
p805
I4
tp806
a(S'athletics'
p807
I4
tp808
a(S'microsoft suite'
p809
I4
tp810
a(S'tourism'
p811
I4
tp812
a(S'html 5'
p813
I4
tp814
a(S'requirements gathering'
p815
I4
tp816
a(S'decision making'
p817
I4
tp818
a(S'drupal'
p819
I4
tp820
a(S'children'
p821
I4
tp822
a(S'interpersonal skills'
p823
I4
tp824
a(S'roid sdk'
p825
I4
tp826
a(S'stocking'
p827
I4
tp828
a(S'inventor'
p829
I4
tp830
a(S'politics'
p831
I4
tp832
a(S'blogs'
p833
I4
tp834
a(S'event coordination'
p835
I4
tp836
a(S'ant'
p837
I4
tp838
a(S'comsol'
p839
I4
tp840
a(S'government administration'
p841
I4
tp842
a(S'microsoft windows'
p843
I4
tp844
a(S'qpcr'
p845
I4
tp846
a(S'aspen'
p847
I4
tp848
a(S'aws'
p849
I4
tp850
a(S'phonegap'
p851
I4
tp852
a(S'filing'
p853
I4
tp854
a(S'ambassador'
p855
I4
tp856
a(S'mgcp'
p857
I4
tp858
a(S'cryptography'
p859
I4
tp860
a(S'risk analysis'
p861
I4
tp862
a(S'qa'
p863
I4
tp864
a(S'banking'
p865
I4
tp866
a(S'pvd'
p867
I4
tp868
a(S'backbone.js'
p869
I4
tp870
a(S'e-learning'
p871
I4
tp872
a(S'argus'
p873
I4
tp874
a(S'vxworks'
p875
I4
tp876
a(S'pr'
p877
I4
tp878
a(S'fortran'
p879
I4
tp880
a(S'representative'
p881
I4
tp882
a(S'aviation'
p883
I4
tp884
a(S'ms access'
p885
I4
tp886
a(S'cvd'
p887
I4
tp888
a(S'hardware'
p889
I4
tp890
a(S'unity'
p891
I4
tp892
a(S'events'
p893
I4
tp894
a(S'lean'
p895
I4
tp896
a(S'tutor'
p897
I4
tp898
a(S'small business'
p899
I4
tp900
a(S'cision'
p901
I4
tp902
a(S'startups'
p903
I4
tp904
a(S'microsoft project'
p905
I4
tp906
a(S'network administration'
p907
I4
tp908
a(S'prezi'
p909
I4
tp910
a(S'ap style'
p911
I4
tp912
a(S'user research'
p913
I4
tp914
a(S'aerospace'
p915
I4
tp916
a(S'western blotting'
p917
I4
tp918
a(S'social networking'
p919
I4
tp920
a(S'equity research'
p921
I4
tp922
a(S'costume design'
p923
I4
tp924
a(S'billing'
p925
I4
tp926
a(S'lead generation'
p927
I4
tp928
a(S'uml'
p929
I4
tp930
a(S'heuristic evaluation'
p931
I4
tp932
a(S'shipping'
p933
I4
tp934
a(S'arcgis'
p935
I4
tp936
a(S'abaqus'
p937
I4
tp938
a(S'vbscript'
p939
I4
tp940
a(S'support'
p941
I4
tp942
a(S'renewable energy'
p943
I4
tp944
a(S'balsamiq'
p945
I4
tp946
a(S'multitasking'
p947
I4
tp948
a(S'spice'
p949
I4
tp950
a(S'videography'
p951
I4
tp952
a(S'food service'
p953
I4
tp954
a(S'game design'
p955
I4
tp956
a(S'publishing'
p957
I4
tp958
a(S'electrical engineering'
p959
I4
tp960
a(S'start-up'
p961
I4
tp962
a(S'coordinator'
p963
I4
tp964
a(S'peoplesoft'
p965
I4
tp966
a(S'test'
p967
I4
tp968
a(S'cloud computing'
p969
I4
tp970
a(S'mac interface'
p971
I4
tp972
a(S'diplomacy'
p973
I3
tp974
a(S'blog'
p975
I3
tp976
a(S'manager'
p977
I3
tp978
a(S'ror'
p979
I3
tp980
a(S'peachtree'
p981
I3
tp982
a(S'case management'
p983
I3
tp984
a(S'materials science'
p985
I3
tp986
a(S'automotive'
p987
I3
tp988
a(S'computer networking'
p989
I3
tp990
a(S'real estate'
p991
I3
tp992
a(S'start up'
p993
I3
tp994
a(S'windows os'
p995
I3
tp996
a(S'instagram'
p997
I3
tp998
a(S'student affairs'
p999
I3
tp1000
a(S'investment'
p1001
I3
tp1002
a(S'e-mail marketing'
p1003
I3
tp1004
a(S'ros'
p1005
I3
tp1006
a(S'investing'
p1007
I3
tp1008
a(S'asic'
p1009
I3
tp1010
a(S'dcf'
p1011
I3
tp1012
a(S'non profit'
p1013
I3
tp1014
a(S'international trade'
p1015
I3
tp1016
a(S'genotyping'
p1017
I3
tp1018
a(S'accounts receivable'
p1019
I3
tp1020
a(S'detail-oriented'
p1021
I3
tp1022
a(S'b2b'
p1023
I3
tp1024
a(S'front desk'
p1025
I3
tp1026
a(S'thin films'
p1027
I3
tp1028
a(S'software testing'
p1029
I3
tp1030
a(S'pipetting'
p1031
I3
tp1032
a(S'social'
p1033
I3
tp1034
a(S'military'
p1035
I3
tp1036
a(S'qualtrics'
p1037
I3
tp1038
a(S'premiere pro'
p1039
I3
tp1040
a(S'stakeholder interviews'
p1041
I3
tp1042
a(S'account management'
p1043
I3
tp1044
a(S'singing'
p1045
I3
tp1046
a(S'machine shop'
p1047
I3
tp1048
a(S'agile methodologies'
p1049
I3
tp1050
a(S'health education'
p1051
I3
tp1052
a(S'grant writing'
p1053
I3
tp1054
a(S'entertainment'
p1055
I3
tp1056
a(S'xilinx ise'
p1057
I3
tp1058
a(S'spanish fluency'
p1059
I3
tp1060
a(S'afm'
p1061
I3
tp1062
a(S'sip'
p1063
I3
tp1064
a(S'c#.net'
p1065
I3
tp1066
a(S'nonprofit management'
p1067
I3
tp1068
a(S'bilingual'
p1069
I3
tp1070
a(S'bioinformatics'
p1071
I3
tp1072
a(S'ethics'
p1073
I3
tp1074
a(S'commercial real estate'
p1075
I3
tp1076
a(S'crafts'
p1077
I3
tp1078
a(S'cadence virtuoso'
p1079
I3
tp1080
a(S'archaeology'
p1081
I3
tp1082
a(S'frontend'
p1083
I3
tp1084
a(S'hiring'
p1085
I3
tp1086
a(S'interpersonal'
p1087
I3
tp1088
a(S'marketing research'
p1089
I3
tp1090
a(S'website design'
p1091
I3
tp1092
a(S'capital markets'
p1093
I3
tp1094
a(S'bloomberg terminal'
p1095
I3
tp1096
a(S'digital media'
p1097
I3
tp1098
a(S'microsoft excell'
p1099
I3
tp1100
a(S'creo'
p1101
I3
tp1102
a(S'talent acquisition'
p1103
I3
tp1104
a(S'coffeescript'
p1105
I3
tp1106
a(S'user interface'
p1107
I3
tp1108
a(S'axure'
p1109
I3
tp1110
a(S'network'
p1111
I3
tp1112
a(S'safety'
p1113
I3
tp1114
a(S'interpersonal communication'
p1115
I3
tp1116
a(S'ocaml'
p1117
I3
tp1118
a(S'audacity'
p1119
I3
tp1120
a(S'machining'
p1121
I3
tp1122
a(S'rapid prototyping'
p1123
I3
tp1124
a(S'image processing'
p1125
I3
tp1126
a(S'basic html'
p1127
I3
tp1128
a(S'publication'
p1129
I3
tp1130
a(S'service'
p1131
I3
tp1132
a(S'struts'
p1133
I3
tp1134
a(S'wireshark'
p1135
I3
tp1136
a(S'philanthropy'
p1137
I3
tp1138
a(S'google app engine'
p1139
I3
tp1140
a(S'typing'
p1141
I3
tp1142
a(S'culture'
p1143
I3
tp1144
a(S'cisco ios'
p1145
I3
tp1146
a(S'google apps'
p1147
I3
tp1148
a(S'video production'
p1149
I3
tp1150
a(S'social entrepreneurship'
p1151
I3
tp1152
a(S'business intelligence'
p1153
I3
tp1154
a(S'angularjs'
p1155
I3
tp1156
a(S'design of experiments'
p1157
I3
tp1158
a(S'search engine optimization'
p1159
I3
tp1160
a(S'factiva'
p1161
I3
tp1162
a(S'google sketchup'
p1163
I3
tp1164
a(S'computer games'
p1165
I3
tp1166
a(S'physics'
p1167
I3
tp1168
a(S'supply chain'
p1169
I3
tp1170
a(S'operations management'
p1171
I3
tp1172
a(S'visual studio'
p1173
I3
tp1174
a(S'market analysis'
p1175
I3
tp1176
a(S'network security'
p1177
I3
tp1178
a(S'layout'
p1179
I3
tp1180
a(S'oracle 10g'
p1181
I3
tp1182
a(S'piano'
p1183
I3
tp1184
a(S'graph theory'
p1185
I3
tp1186
a(S'visual merch'
p1187
I3
tp1188
a(S'data collection'
p1189
I3
tp1190
a(S'finite element analysis'
p1191
I3
tp1192
a(S'start ups'
p1193
I3
tp1194
a(S'qt'
p1195
I3
tp1196
a(S'restaurants'
p1197
I3
tp1198
a(S'economic development'
p1199
I3
tp1200
a(S'proposal writing'
p1201
I3
tp1202
a(S'computer'
p1203
I3
tp1204
a(S'drawing'
p1205
I3
tp1206
a(S'back-end'
p1207
I3
tp1208
a(S'lua'
p1209
I3
tp1210
a(S'sponsorship'
p1211
I3
tp1212
a(S'revit architecture'
p1213
I3
tp1214
a(S'filemaker pro'
p1215
I3
tp1216
a(S'post-production'
p1217
I3
tp1218
a(S'multi-tasking'
p1219
I3
tp1220
a(S'inventory management'
p1221
I3
tp1222
a(S'media relations'
p1223
I3
tp1224
a(S'data visualization'
p1225
I3
tp1226
a(S'coldfusion'
p1227
I3
tp1228
a(S'java script'
p1229
I3
tp1230
a(S'core java'
p1231
I3
tp1232
a(S'windows interface'
p1233
I3
tp1234
a(S'user experience research'
p1235
I3
tp1236
a(S'tcp/ip'
p1237
I3
tp1238
a(S'renewables'
p1239
I3
tp1240
a(S'swt'
p1241
I3
tp1242
a(S'infographics'
p1243
I3
tp1244
a(S'gas'
p1245
I3
tp1246
a(S'search'
p1247
I3
tp1248
a(S'creative development'
p1249
I3
tp1250
a(S'westlaw'
p1251
I3
tp1252
a(S'auto cad'
p1253
I3
tp1254
a(S'statistical analysis'
p1255
I3
tp1256
a(S'restful web services'
p1257
I3
tp1258
a(S'h.323'
p1259
I3
tp1260
a(S'vb'
p1261
I3
tp1262
a(S'linkedin'
p1263
I3
tp1264
a(S'after effects'
p1265
I3
tp1266
a(S'plsql'
p1267
I3
tp1268
a(S'government'
p1269
I3
tp1270
a(S'web designing'
p1271
I3
tp1272
a(S'social media management'
p1273
I3
tp1274
a(S'team leadership'
p1275
I3
tp1276
a(S'cleaning'
p1277
I3
tp1278
a(S'biochemistry'
p1279
I3
tp1280
a(S'client service'
p1281
I3
tp1282
a(S'milling'
p1283
I3
tp1284
a(S'international affairs'
p1285
I3
tp1286
a(S'opencv'
p1287
I3
tp1288
a(S'oracle sql'
p1289
I3
tp1290
a(S'wealth management'
p1291
I3
tp1292
a(S'design thinking'
p1293
I3
tp1294
a(S'ms project'
p1295
I3
tp1296
a(S'media planning'
p1297
I3
tp1298
a(S'windows 7'
p1299
I3
tp1300
a(S'google'
p1301
I3
tp1302
a(S'community management'
p1303
I3
tp1304
a(S'usability testing'
p1305
I3
tp1306
a(S'flow cytometry'
p1307
I3
tp1308
a(S'sketching'
p1309
I3
tp1310
a(S'information security'
p1311
I3
tp1312
a(S'community development'
p1313
I3
tp1314
a(S'illustration'
p1315
I3
tp1316
a(S'social organization'
p1317
I3
tp1318
a(S'shell scripting'
p1319
I3
tp1320
a(S'newspapers'
p1321
I3
tp1322
a(S'sass'
p1323
I3
tp1324
a(S'sports marketing'
p1325
I3
tp1326
a(S'civic'
p1327
I3
tp1328
a(S'content development'
p1329
I3
tp1330
a(S'entrepreneur'
p1331
I3
tp1332
a(S'device physics'
p1333
I3
tp1334
a(S'underst'
p1335
I3
tp1336
a(S'ms office suite'
p1337
I3
tp1338
a(S'wireless'
p1339
I3
tp1340
a(S'growth'
p1341
I3
tp1342
a(S'ui'
p1343
I3
tp1344
a(S'strategy consulting'
p1345
I3
tp1346
a(S'mechanics'
p1347
I3
tp1348
a(S'business analyst'
p1349
I3
tp1350
a(S'field'
p1351
I3
tp1352
a(S'negotiations'
p1353
I3
tp1354
a(S'system verilog'
p1355
I3
tp1356
a(S'electrical'
p1357
I3
tp1358
a(S'beverages'
p1359
I3
tp1360
a(S'xaml'
p1361
I3
tp1362
a(S'adobe lightroom'
p1363
I3
tp1364
a(S'backbone'
p1365
I3
tp1366
a(S'algorithm'
p1367
I3
tp1368
a(S'user testing'
p1369
I3
tp1370
a(S'press release writing'
p1371
I3
tp1372
a(S'beverage'
p1373
I3
tp1374
a(S'zendesk'
p1375
I3
tp1376
a(S'basic java'
p1377
I3
tp1378
a(S'roi'
p1379
I2
tp1380
a(S'coach'
p1381
I2
tp1382
a(S'html + css'
p1383
I2
tp1384
a(S'business requirements'
p1385
I2
tp1386
a(S'usability studies'
p1387
I2
tp1388
a(S'vision content'
p1389
I2
tp1390
a(S'openlayers'
p1391
I2
tp1392
a(S'go'
p1393
I2
tp1394
a(S'rhino'
p1395
I2
tp1396
a(S'microsoft sql server'
p1397
I2
tp1398
a(S'content management'
p1399
I2
tp1400
a(S'instructor'
p1401
I2
tp1402
a(S'arin'
p1403
I2
tp1404
a(S'producing'
p1405
I2
tp1406
a(S'voice cpe equipments'
p1407
I2
tp1408
a(S'recreational facilities'
p1409
I2
tp1410
a(S'avid media composer'
p1411
I2
tp1412
a(S'photoshop cs6'
p1413
I2
tp1414
a(S'rna purification'
p1415
I2
tp1416
a(S'wimax'
p1417
I2
tp1418
a(S'fast pace'
p1419
I2
tp1420
a(S'mixing'
p1421
I2
tp1422
a(S'excel expert'
p1423
I2
tp1424
a(S'servlet'
p1425
I2
tp1426
a(S'hospital gift shop'
p1427
I2
tp1428
a(S'unity3d'
p1429
I2
tp1430
a(S'cross-functional team leadership'
p1431
I2
tp1432
a(S'computer skills'
p1433
I2
tp1434
a(S'hive'
p1435
I2
tp1436
a(S'p'
I2
tp1437
a(S'guerilla marketing'
p1438
I2
tp1439
a(S'cms'
p1440
I2
tp1441
a(S'essbase'
p1442
I2
tp1443
a(S'uclinux'
p1444
I2
tp1445
a(S'adobe acrobat'
p1446
I2
tp1447
a(S'biology'
p1448
I2
tp1449
a(S'vmware'
p1450
I2
tp1451
a(S'designing'
p1452
I2
tp1453
a(S'international'
p1454
I2
tp1455
a(S'professional services'
p1456
I2
tp1457
a(S'copy writing'
p1458
I2
tp1459
a(S'transportation'
p1460
I2
tp1461
a(S'laser cutting'
p1462
I2
tp1463
a(S'anthropology'
p1464
I2
tp1465
a(S'mechanical design'
p1466
I2
tp1467
a(S'ubuntu'
p1468
I2
tp1469
a(S'adobe photoshop cs6'
p1470
I2
tp1471
a(S'warehousing'
p1472
I2
tp1473
a(S'museums'
p1474
I2
tp1475
a(S'credit'
p1476
I2
tp1477
a(S'copyediting'
p1478
I2
tp1479
a(S'trend analysis'
p1480
I2
tp1481
a(S'excel modeling'
p1482
I2
tp1483
a(S'mobility'
p1484
I2
tp1485
a(S'political campaigns'
p1486
I2
tp1487
a(S'flexibility'
p1488
I2
tp1489
a(S'automation testing'
p1490
I2
tp1491
a(S'auditing'
p1492
I2
tp1493
a(S'adobe premiere pro'
p1494
I2
tp1495
a(S'monetization'
p1496
I2
tp1497
a(S'languages'
p1498
I2
tp1499
a(S'vlsi'
p1500
I2
tp1501
a(S'process analysis'
p1502
I2
tp1503
a(S'commitment'
p1504
I2
tp1505
a(S'gsm'
p1506
I2
tp1507
a(S'working with children'
p1508
I2
tp1509
a(S'qrt-pcr'
p1510
I2
tp1511
a(S'spt'
p1512
I2
tp1513
a(S'qa testing'
p1514
I2
tp1515
a(S'account manager'
p1516
I2
tp1517
a(S'requirements management'
p1518
I2
tp1519
a(S'office administration'
p1520
I2
tp1521
a(S'bring your own device'
p1522
I2
tp1523
a(S'vpn'
p1524
I2
tp1525
a(S'phone calls'
p1526
I2
tp1527
a(S'language'
p1528
I2
tp1529
a(S'social media implementation'
p1530
I2
tp1531
a(S'science'
p1532
I2
tp1533
a(S'friendly'
p1534
I2
tp1535
a(S'office assistant'
p1536
I2
tp1537
a(S'staffing'
p1538
I2
tp1539
a(S'membership'
p1540
I2
tp1541
a(S'pro tools'
p1542
I2
tp1543
a(S'marketing plan'
p1544
I2
tp1545
a(S'basic html5'
p1546
I2
tp1547
a(S'arin chinese'
p1548
I2
tp1549
a(S'newsletters'
p1550
I2
tp1551
a(S'portfolio management'
p1552
I2
tp1553
a(S'simulation'
p1554
I2
tp1555
a(S'quick books'
p1556
I2
tp1557
a(S's3'
p1558
I2
tp1559
a(S'sports media'
p1560
I2
tp1561
a(S'tableau'
p1562
I2
tp1563
a(S'thermodynamics'
p1564
I2
tp1565
a(S'xhtml'
p1566
I2
tp1567
a(S'atmel'
p1568
I2
tp1569
a(S'product'
p1570
I2
tp1571
a(S'cocoa touch'
p1572
I2
tp1573
a(S'silicon valley'
p1574
I2
tp1575
a(S'social justice'
p1576
I2
tp1577
a(S'money management'
p1578
I2
tp1579
a(S'logo design'
p1580
I2
tp1581
a(S'e-commerce'
p1582
I2
tp1583
a(S'ards'
p1584
I2
tp1585
a(S'se'
p1586
I2
tp1587
a(S'javacript'
p1588
I2
tp1589
a(S'media gateways'
p1590
I2
tp1591
a(S'russian'
p1592
I2
tp1593
a(S'pascal'
p1594
I2
tp1595
a(S'google+'
p1596
I2
tp1597
a(S'urdu'
p1598
I2
tp1599
a(S'hbase'
p1600
I2
tp1601
a(S'agile methodology'
p1602
I2
tp1603
a(S'pos system'
p1604
I2
tp1605
a(S'google docs'
p1606
I2
tp1607
a(S'apex'
p1608
I2
tp1609
a(S'gint'
p1610
I2
tp1611
a(S'automation'
p1612
I2
tp1613
a(S'mail'
p1614
I2
tp1615
a(S'constant contact'
p1616
I2
tp1617
a(S'flex'
p1618
I2
tp1619
a(S'chromatography'
p1620
I2
tp1621
a(S'pyrosequencing'
p1622
I2
tp1623
a(S'recreation'
p1624
I2
tp1625
a(S'survey design'
p1626
I2
tp1627
a(S'customer engagement'
p1628
I2
tp1629
a(S'scm'
p1630
I2
tp1631
a(S'visual basics for applications'
p1632
I2
tp1633
a(S'embedded systems'
p1634
I2
tp1635
a(S'surfer 11'
p1636
I2
tp1637
a(S'deal structuring'
p1638
I2
tp1639
a(S'program planning'
p1640
I2
tp1641
a(S'music industry'
p1642
I2
tp1643
a(S'front-end'
p1644
I2
tp1645
a(S'mdm'
p1646
I2
tp1647
a(S'integrated marketing communications'
p1648
I2
tp1649
a(S'energy'
p1650
I2
tp1651
a(S'hardware repair'
p1652
I2
tp1653
a(S'organizational skills'
p1654
I2
tp1655
a(S'direct marketing'
p1656
I2
tp1657
a(S'insurance'
p1658
I2
tp1659
a(S'cdma'
p1660
I2
tp1661
a(S'civil engineering'
p1662
I2
tp1663
a(S'quality'
p1664
I2
tp1665
a(S'telemarketing'
p1666
I2
tp1667
a(S'ejb'
p1668
I2
tp1669
a(S'self-starter'
p1670
I2
tp1671
a(S'test automation'
p1672
I2
tp1673
a(S'rf'
p1674
I2
tp1675
a(S'sdlc'
p1676
I2
tp1677
a(S'evaluation'
p1678
I2
tp1679
a(S'solid edge'
p1680
I2
tp1681
a(S'cultural affairs'
p1682
I2
tp1683
a(S'solid state synthesis'
p1684
I2
tp1685
a(S'investor relations'
p1686
I2
tp1687
a(S'materials characterization'
p1688
I2
tp1689
a(S'putty'
p1690
I2
tp1691
a(S'customer interaction'
p1692
I2
tp1693
a(S'linux server'
p1694
I2
tp1695
a(S'bash'
p1696
I2
tp1697
a(S'swot'
p1698
I2
tp1699
a(S'lifeguarding'
p1700
I2
tp1701
a(S'apple ios'
p1702
I2
tp1703
a(S'machine design'
p1704
I2
tp1705
a(S'topic modeling'
p1706
I2
tp1707
a(S'creative direction'
p1708
I2
tp1709
a(S'computers'
p1710
I2
tp1711
a(S'lte'
p1712
I2
tp1713
a(S'promotion'
p1714
I2
tp1715
a(S'aircraft design'
p1716
I2
tp1717
a(S'c.c++'
p1718
I2
tp1719
a(S'ise'
p1720
I2
tp1721
a(S'benchmarking'
p1722
I2
tp1723
a(S'english'
p1724
I2
tp1725
a(S'advertisement'
p1726
I2
tp1727
a(S'business communication'
p1728
I2
tp1729
a(S'proofreading'
p1730
I2
tp1731
a(S'investment management'
p1732
I2
tp1733
a(S'analog design'
p1734
I2
tp1735
a(S'mathematical modeling'
p1736
I2
tp1737
a(S'it solution'
p1738
I2
tp1739
a(S'ecommerce'
p1740
I2
tp1741
a(S'maple'
p1742
I2
tp1743
a(S'team development'
p1744
I2
tp1745
a(S'microsoft programs'
p1746
I2
tp1747
a(S'story'
p1748
I2
tp1749
a(S'data reconciliation'
p1750
I2
tp1751
a(S'privacy'
p1752
I2
tp1753
a(S'introduction'
p1754
I2
tp1755
a(S'interviews'
p1756
I2
tp1757
a(S'stock'
p1758
I2
tp1759
a(S'emacs'
p1760
I2
tp1761
a(S'farming'
p1762
I2
tp1763
a(S'financial statement analysis'
p1764
I2
tp1765
a(S'operating systems'
p1766
I2
tp1767
a(S'gps'
p1768
I2
tp1769
a(S'layout design'
p1770
I2
tp1771
a(S'shell'
p1772
I2
tp1773
a(S'events services'
p1774
I2
tp1775
a(S'negotiating'
p1776
I2
tp1777
a(S'strategic thinking'
p1778
I2
tp1779
a(S'chemicals'
p1780
I2
tp1781
a(S'spectrum analyzer'
p1782
I2
tp1783
a(S'electrical/electronic manufacturing'
p1784
I2
tp1785
a(S'lighting design'
p1786
I2
tp1787
a(S'immunofluorescent staining'
p1788
I2
tp1789
a(S'typography'
p1790
I2
tp1791
a(S'textiles'
p1792
I2
tp1793
a(S'sourcing'
p1794
I2
tp1795
a(S'human relations'
p1796
I2
tp1797
a(S'tumblr'
p1798
I2
tp1799
a(S'debugging'
p1800
I2
tp1801
a(S'lbs'
p1802
I2
tp1803
a(S'documentation'
p1804
I2
tp1805
a(S'storytelling'
p1806
I2
tp1807
a(S'nutrition'
p1808
I2
tp1809
a(S'partnership'
p1810
I2
tp1811
a(S'lab management'
p1812
I2
tp1813
a(S'advising'
p1814
I2
tp1815
a(S'tdd'
p1816
I2
tp1817
a(S'strength'
p1818
I2
tp1819
a(S'xrd'
p1820
I2
tp1821
a(S'kendo ui'
p1822
I2
tp1823
a(S'marketing automation'
p1824
I2
tp1825
a(S'natural language processing'
p1826
I2
tp1827
a(S'responsibility'
p1828
I2
tp1829
a(S'data visualizations'
p1830
I2
tp1831
a(S'jsf'
p1832
I2
tp1833
a(S'fireworks'
p1834
I2
tp1835
a(S'track'
p1836
I2
tp1837
a(S'cold call'
p1838
I2
tp1839
a(S'anatomy'
p1840
I2
tp1841
a(S'thomson innovation'
p1842
I2
tp1843
a(S'account opening'
p1844
I2
tp1845
a(S'freight forwarding'
p1846
I2
tp1847
a(S'consumer electronics'
p1848
I2
tp1849
a(S'action script'
p1850
I2
tp1851
a(S'help desk'
p1852
I2
tp1853
a(S'tech'
p1854
I2
tp1855
a(S'velocity'
p1856
I2
tp1857
a(S'industrial automation'
p1858
I2
tp1859
a(S'advisory'
p1860
I2
tp1861
a(S'international relations'
p1862
I2
tp1863
a(S'ms office programs'
p1864
I2
tp1865
a(S'xcode'
p1866
I2
tp1867
a(S'sage'
p1868
I2
tp1869
a(S'radio'
p1870
I2
tp1871
a(S'cashh'
p1872
I2
tp1873
a(S'broadcast media'
p1874
I2
tp1875
a(S'opengl'
p1876
I2
tp1877
a(S'basic sql'
p1878
I2
tp1879
a(S'dcf valuation'
p1880
I2
tp1881
a(S'solid works'
p1882
I2
tp1883
a(S'winscp'
p1884
I2
tp1885
a(S'eaglepcb'
p1886
I2
tp1887
a(S'email'
p1888
I2
tp1889
a(S'technical writing'
p1890
I2
tp1891
a(S'c programming'
p1892
I2
tp1893
a(S'aspen plus'
p1894
I2
tp1895
a(S'context awareness'
p1896
I2
tp1897
a(S'business writing'
p1898
I2
tp1899
a(S'automated testing'
p1900
I2
tp1901
a(S'lifeguard'
p1902
I2
tp1903
a(S'contracts'
p1904
I2
tp1905
a(S'public health'
p1906
I2
tp1907
a(S'leisure'
p1908
I2
tp1909
a(S'spreadsheets'
p1910
I2
tp1911
a(S'sso'
p1912
I2
tp1913
a(S'ssh'
p1914
I2
tp1915
a(S'coordinating'
p1916
I2
tp1917
a(S'rowing'
p1918
I2
tp1919
a(S'abap'
p1920
I2
tp1921
a(S'microscopy'
p1922
I2
tp1923
a(S'amba'
p1924
I2
tp1925
a(S'qc'
p1926
I2
tp1927
a(S'quality control'
p1928
I2
tp1929
a(S'architecture'
p1930
I2
tp1931
a(S'hplc'
p1932
I2
tp1933
a(S'traffic engineering'
p1934
I2
tp1935
a(S'probabilistic modeling'
p1936
I2
tp1937
a(S'cognos'
p1938
I2
tp1939
a(S'cakephp'
p1940
I2
tp1941
a(S'effective communication'
p1942
I2
tp1943
a(S'mathematical modelling'
p1944
I2
tp1945
a(S'keynote'
p1946
I2
tp1947
a(S'system administration'
p1948
I2
tp1949
a(S'distributed computing'
p1950
I2
tp1951
a(S'content marketing'
p1952
I2
tp1953
a(S'outsourcing'
p1954
I2
tp1955
a(S'consumer insight'
p1956
I2
tp1957
a(S'vendor management'
p1958
I2
tp1959
a(S'reading'
p1960
I2
tp1961
a(S'painting'
p1962
I2
tp1963
a(S'rest api'
p1964
I2
tp1965
a(S'outdoors'
p1966
I2
tp1967
a(S'relationship management'
p1968
I2
tp1969
a(S'qt creator'
p1970
I2
tp1971
a(S'adobe illustrator cs6'
p1972
I2
tp1973
a(S'public relation'
p1974
I2
tp1975
a(S'ethnography'
p1976
I2
tp1977
a(S'news writing'
p1978
I2
tp1979
a(S'solr'
p1980
I2
tp1981
a(S'drupal cms'
p1982
I2
tp1983
a(S'decision analysis'
p1984
I2
tp1985
a(S'device characterization'
p1986
I2
tp1987
a(S'restaurant'
p1988
I2
tp1989
a(S'scientific research'
p1990
I2
tp1991
a(S'iphone app'
p1992
I2
tp1993
a(S'gwt'
p1994
I2
tp1995
a(S'logic'
p1996
I2
tp1997
a(S'marketing analysis'
p1998
I2
tp1999
a(S'forecasting'
p2000
I2
tp2001
a(S'cancer'
p2002
I2
tp2003
a(S'microsoft sql'
p2004
I2
tp2005
a(S'leverage'
p2006
I2
tp2007
a(S'solidwork'
p2008
I2
tp2009
a(S'protein purification'
p2010
I2
tp2011
a(S'grants'
p2012
I2
tp2013
a(S'initiative'
p2014
I2
tp2015
a(S'trust'
p2016
I2
tp2017
a(S'kinect'
p2018
I2
tp2019
a(S'arts'
p2020
I2
tp2021
a(S'employee management'
p2022
I2
tp2023
a(S'mobile design'
p2024
I2
tp2025
a(S'asp.net mvc'
p2026
I2
tp2027
a(S'pc'
p2028
I2
tp2029
a(S'production'
p2030
I2
tp2031
a(S'business marketing'
p2032
I2
tp2033
a(S'bitkinex'
p2034
I2
tp2035
a(S'innovation development'
p2036
I2
tp2037
a(S'brainstorming'
p2038
I2
tp2039
a(S'website'
p2040
I2
tp2041
a(S'marketing communications'
p2042
I2
tp2043
a(S'computer repair'
p2044
I2
tp2045
a(S'cost benefit analysis'
p2046
I2
tp2047
a(S'legal services'
p2048
I2
tp2049
a(S'project development'
p2050
I2
tp2051
a(S'final cut pro x'
p2052
I2
tp2053
a(S'autodesk inventor'
p2054
I2
tp2055
a(S'iv injection'
p2056
I2
tp2057
a(S'theater production'
p2058
I2
tp2059
a(S'client management'
p2060
I2
tp2061
a(S'cobol'
p2062
I2
tp2063
a(S'reports'
p2064
I2
tp2065
a(S'hebrew'
p2066
I2
tp2067
a(S'arabic'
p2068
I2
tp2069
a(S'arts management'
p2070
I2
tp2071
a(S'copy editing'
p2072
I2
tp2073
a(S'spring mvc'
p2074
I2
tp2075
a(S'program management'
p2076
I2
tp2077
a(S'contextual inquiry'
p2078
I2
tp2079
a(S'ccna'
p2080
I2
tp2081
a(S'microsoft query'
p2082
I2
tp2083
a(S'backend coding'
p2084
I2
tp2085
a(S'broadcast'
p2086
I2
tp2087
a(S'six sigma'
p2088
I2
tp2089
a(S'google drive'
p2090
I2
tp2091
a(S'running'
p2092
I2
tp2093
a(S'cucumber'
p2094
I2
tp2095
a(S'japanese to english translation'
p2096
I2
tp2097
a(S'memory controller'
p2098
I2
tp2099
a(S'electromagnetism'
p2100
I2
tp2101
a(S'eye tracking'
p2102
I2
tp2103
a(S'ccs'
p2104
I2
tp2105
a(S'photo editing'
p2106
I2
tp2107
a(S'chemistry'
p2108
I2
tp2109
a(S'assembly language'
p2110
I2
tp2111
a(S'leadership skills'
p2112
I2
tp2113
a(S'oracle 11g'
p2114
I2
tp2115
a(S'networks'
p2116
I2
tp2117
a(S'clerical skills'
p2118
I2
tp2119
a(S'change management'
p2120
I2
tp2121
a(S'web2py'
p2122
I2
tp2123
a(S'lbr'
p2124
I2
tp2125
a(S'engineer'
p2126
I2
tp2127
a(S'uv-vis'
p2128
I2
tp2129
a(S'new product development'
p2130
I2
tp2131
a(S'animation'
p2132
I2
tp2133
a(S'filezilla client'
p2134
I2
tp2135
a(S'crimson hexagon'
p2136
I2
tp2137
a(S'social enterprise'
p2138
I2
tp2139
a(S'penetration testing'
p2140
I2
tp2141
a(S'strategic communications'
p2142
I2
tp2143
a(S'new business development'
p2144
I2
tp2145
a(S'maya'
p2146
I2
tp2147
a(S'css6'
p2148
I2
tp2149
a(S'ux design'
p2150
I2
tp2151
a(S'ngp van'
p2152
I2
tp2153
a(S'plone cms'
p2154
I2
tp2155
a(S'pos'
p2156
I2
tp2157
a(S'logic design'
p2158
I2
tp2159
a(S'immunology'
p2160
I2
tp2161
a(S'adobe suite'
p2162
I2
tp2163
a(S'vocus'
p2164
I2
tp2165
a(S'blood collection'
p2166
I2
tp2167
a(S'd'
I2
tp2168
a(S'cell harvesting'
p2169
I2
tp2170
a(S'efficiency'
p2171
I2
tp2172
a(S'online marketing'
p2173
I2
tp2174
a(S'officer'
p2175
I2
tp2176
a(S'vdi'
p2177
I2
tp2178
a(S'maas360'
p2179
I2
tp2180
a(S'financial forecasting'
p2181
I2
tp2182
a(S'italian'
p2183
I2
tp2184
a(S'imagej'
p2185
I2
tp2186
a(S'time-management'
p2187
I2
tp2188
a(S'multimedia information retrieval'
p2189
I2
tp2190
a(S'adobe dreamweaver'
p2191
I2
tp2192
a(S'library'
p2193
I2
tp2194
a(S'googleappengine'
p2195
I2
tp2196
a(S'gel electrophoresis'
p2197
I2
tp2198
a(S'magma'
p2199
I2
tp2200
a(S'export'
p2201
I2
tp2202
a(S'electric circuits'
p2203
I2
tp2204
a(S'event execution'
p2205
I2
tp2206
a(S'client services'
p2207
I2
tp2208
a(S'oral communication'
p2209
I2
tp2210
a(S'filming'
p2211
I2
tp2212
a(S'critical thinking'
p2213
I2
tp2214
a(S'web services'
p2215
I2
tp2216
a(S'interviewing subject matter experts'
p2217
I2
tp2218
a(S'wireframing'
p2219
I2
tp2220
a(S'teradata'
p2221
I2
tp2222
a(S'event promotion'
p2223
I2
tp2224
a(S'teaching abilities'
p2225
I2
tp2226
a(S'stem'
p2227
I2
tp2228
a(S'maven'
p2229
I2
tp2230
a(S'vbulletin'
p2231
I2
tp2232
a(S'analytics (quantitative/qualitative)'
p2233
I2
tp2234
a(S'regulatory compliance'
p2235
I2
tp2236
a(S'ms powerpoint'
p2237
I2
tp2238
a(S'wordpress cms'
p2239
I2
tp2240
a(S'mechanical engineering'
p2241
I2
tp2242
a(S'volunteering'
p2243
I2
tp2244
a(S'bgp'
p2245
I2
tp2246
a(S'joomla'
p2247
I2
tp2248
a(S'cuda'
p2249
I2
tp2250
a(S'azure'
p2251
I2
tp2252
a(S'messaging'
p2253
I2
tp2254
a(S'ospf'
p2255
I2
tp2256
a(S'pharmaceutical biotechnology.'
p2257
I2
tp2258
a(S'vlookup'
p2259
I2
tp2260
a(S'film production'
p2261
I2
tp2262
a(S'parsing'
p2263
I2
tp2264
a(S'haskell'
p2265
I2
tp2266
a(S'ppt'
p2267
I2
tp2268
a(S'mutual funds'
p2269
I2
tp2270
a(S'mobile device management'
p2271
I2
tp2272
a(S'pro/engineer'
p2273
I2
tp2274
a(S'cell biology'
p2275
I2
tp2276
a(S'college athletics'
p2277
I2
tp2278
a(S'charts'
p2279
I2
tp2280
a(S'growth hacking'
p2281
I2
tp2282
a(S'agile development'
p2283
I2
tp2284
a(S'synthesis'
p2285
I2
tp2286
a(S'maintenance'
p2287
I2
tp2288
a(S'java.'
p2289
I2
tp2290
a(S'lexisnexis'
p2291
I2
tp2292
a(S'solar'
p2293
I2
tp2294
a(S'ns2'
p2295
I2
tp2296
a(S'professional training'
p2297
I2
tp2298
a(S'software design'
p2299
I2
tp2300
a(S'byod'
p2301
I2
tp2302
a(S'market risk'
p2303
I2
tp2304
a(S'mailchimp'
p2305
I2
tp2306
a(S'inventory control'
p2307
I2
tp2308
a(S'djing'
p2309
I2
tp2310
a(S'mass spectrometry'
p2311
I2
tp2312
a(S'viruses'
p2313
I2
tp2314
a(S'radian6'
p2315
I2
tp2316
a(S'record keeping'
p2317
I2
tp2318
a(S'pig'
p2319
I2
tp2320
a(S'administration skills'
p2321
I2
tp2322
a(S'healthcare communications'
p2323
I2
tp2324
a(S'audio production'
p2325
I2
tp2326
a(S'ocean shipping'
p2327
I2
tp2328
a(S'graphs'
p2329
I2
tp2330
a(S'green aviation'
p2331
I2
tp2332
a(S'cinematography'
p2333
I2
tp2334
a(S'digital'
p2335
I2
tp2336
a(S'node'
p2337
I2
tp2338
a(S'foreign language'
p2339
I2
tp2340
a(S'toad'
p2341
I2
tp2342
a(S'cascade cms server'
p2343
I2
tp2344
a(S'packaging'
p2345
I2
tp2346
a(S'ugnx'
p2347
I2
tp2348
a(S'mac applications'
p2349
I2
tp2350
a(S'office management'
p2351
I2
tp2352
a(S'business plan'
p2353
I2
tp2354
a(S'svn'
p2355
I2
tp2356
a(S'software security'
p2357
I2
tp2358
a(S'svm'
p2359
I2
tp2360
a(S'e'
I2
tp2361
a(S'tomcat'
p2362
I2
tp2363
a(S'rtl design'
p2364
I2
tp2365
a(S'reception'
p2366
I2
tp2367
a(S'cpp'
p2368
I2
tp2369
a(S'4g'
p2370
I2
tp2371
a.